target datalayout = "e-m:e-p270:32:32-p271:32:32-p272:64:64-i64:64-i128:128-f80:128-n8:16:32:64-S128"
target triple = "x86_64-pc-linux-gnu"

%struct.GLNVGcontext = type { %struct.GLNVGshader, ptr, [2 x float], i32, i32, i32, i32, i32, i32, i32, i32, ptr, i32, i32, ptr, i32, i32, ptr, i32, i32, ptr, i32, i32, i32, i32, i32, i32, i32, %struct.GLNVGblend }
%struct.GLNVGshader = type { i32, i32, i32, [3 x i32] }
%struct.GLNVGblend = type { i32, i32, i32, i32 }
%struct.GLNVGtexture = type { i32, i32, i32, i32, i32, i32 }

; Function Attrs: mustprogress uwtable
define internal void @_ZL18glnvg__bindTextureP12GLNVGcontextj(ptr noundef %0, i32 noundef %1) #4 {
  %3 = alloca ptr, align 8
  %4 = alloca i32, align 4
  store ptr %0, ptr %3, align 8
  store i32 %1, ptr %4, align 4
  %5 = load ptr, ptr %3, align 8
  %6 = getelementptr inbounds %struct.GLNVGcontext, ptr %5, i32 0, i32 23
  %7 = load i32, ptr %6, align 8
  %8 = load i32, ptr %4, align 4
  %9 = icmp ne i32 %7, %8
  br i1 %9, label %10, label %15

10:                                               ; preds = %2
  %11 = load i32, ptr %4, align 4
  %12 = load ptr, ptr %3, align 8
  %13 = getelementptr inbounds %struct.GLNVGcontext, ptr %12, i32 0, i32 23
  store i32 %11, ptr %13, align 8
  %14 = load i32, ptr %4, align 4
  call void @glBindTexture(i32 noundef 3553, i32 noundef %14)
  br label %15

15:                                               ; preds = %10, %2
  ret void
}

; Function Attrs: mustprogress nounwind uwtable
define internal noundef ptr @_ZL18glnvg__findTextureP12GLNVGcontexti(ptr noundef %0, i32 noundef %1) #7 {
  %3 = alloca ptr, align 8
  %4 = alloca ptr, align 8
  %5 = alloca i32, align 4
  %6 = alloca i32, align 4
  store ptr %0, ptr %4, align 8
  store i32 %1, ptr %5, align 4
  store i32 0, ptr %6, align 4
  br label %7

7:                                                ; preds = %32, %2
  %8 = load i32, ptr %6, align 4
  %9 = load ptr, ptr %4, align 8
  %10 = getelementptr inbounds %struct.GLNVGcontext, ptr %9, i32 0, i32 3
  %11 = load i32, ptr %10, align 8
  %12 = icmp slt i32 %8, %11
  br i1 %12, label %13, label %35

13:                                               ; preds = %7
  %14 = load ptr, ptr %4, align 8
  %15 = getelementptr inbounds %struct.GLNVGcontext, ptr %14, i32 0, i32 1
  %16 = load ptr, ptr %15, align 8
  %17 = load i32, ptr %6, align 4
  %18 = sext i32 %17 to i64
  %19 = getelementptr inbounds %struct.GLNVGtexture, ptr %16, i64 %18
  %20 = getelementptr inbounds %struct.GLNVGtexture, ptr %19, i32 0, i32 0
  %21 = load i32, ptr %20, align 4
  %22 = load i32, ptr %5, align 4
  %23 = icmp eq i32 %21, %22
  br i1 %23, label %24, label %31

24:                                               ; preds = %13
  %25 = load ptr, ptr %4, align 8
  %26 = getelementptr inbounds %struct.GLNVGcontext, ptr %25, i32 0, i32 1
  %27 = load ptr, ptr %26, align 8
  %28 = load i32, ptr %6, align 4
  %29 = sext i32 %28 to i64
  %30 = getelementptr inbounds %struct.GLNVGtexture, ptr %27, i64 %29
  store ptr %30, ptr %3, align 8
  br label %36

31:                                               ; preds = %13
  br label %32

32:                                               ; preds = %31
  %33 = load i32, ptr %6, align 4
  %34 = add nsw i32 %33, 1
  store i32 %34, ptr %6, align 4
  br label %7, !llvm.loop !11

35:                                               ; preds = %7
  store ptr null, ptr %3, align 8
  br label %36

36:                                               ; preds = %35, %24
  %37 = load ptr, ptr %3, align 8
  ret ptr %37
}

; Function Attrs: mustprogress uwtable
define internal noundef i32 @_ZL26glnvg__renderUpdateTexturePviiiiiPKh(ptr noundef %0, i32 noundef %1, i32 noundef %2, i32 noundef %3, i32 noundef %4, i32 noundef %5, ptr noundef %6) #4 {
  %8 = alloca i32, align 4
  %9 = alloca ptr, align 8
  %10 = alloca i32, align 4
  %11 = alloca i32, align 4
  %12 = alloca i32, align 4
  %13 = alloca i32, align 4
  %14 = alloca i32, align 4
  %15 = alloca ptr, align 8
  %16 = alloca ptr, align 8
  %17 = alloca ptr, align 8
  store ptr %0, ptr %9, align 8
  store i32 %1, ptr %10, align 4
  store i32 %2, ptr %11, align 4
  store i32 %3, ptr %12, align 4
  store i32 %4, ptr %13, align 4
  store i32 %5, ptr %14, align 4
  store ptr %6, ptr %15, align 8
  %18 = load ptr, ptr %9, align 8
  store ptr %18, ptr %16, align 8
  %19 = load ptr, ptr %16, align 8
  %20 = load i32, ptr %10, align 4
  %21 = call noundef ptr @_ZL18glnvg__findTextureP12GLNVGcontexti(ptr noundef %19, i32 noundef %20)
  store ptr %21, ptr %17, align 8
  %22 = load ptr, ptr %17, align 8
  %23 = icmp eq ptr %22, null
  br i1 %23, label %24, label %25

24:                                               ; preds = %7
  store i32 0, ptr %8, align 4
  br label %53

25:                                               ; preds = %7
  %26 = load ptr, ptr %16, align 8
  %27 = load ptr, ptr %17, align 8
  %28 = getelementptr inbounds %struct.GLNVGtexture, ptr %27, i32 0, i32 1
  %29 = load i32, ptr %28, align 4
  call void @_ZL18glnvg__bindTextureP12GLNVGcontextj(ptr noundef %26, i32 noundef %29)
  call void @glPixelStorei(i32 noundef 3317, i32 noundef 1)
  %30 = load ptr, ptr %17, align 8
  %31 = getelementptr inbounds %struct.GLNVGtexture, ptr %30, i32 0, i32 2
  %32 = load i32, ptr %31, align 4
  call void @glPixelStorei(i32 noundef 3314, i32 noundef %32)
  %33 = load i32, ptr %11, align 4
  call void @glPixelStorei(i32 noundef 3316, i32 noundef %33)
  %34 = load i32, ptr %12, align 4
  call void @glPixelStorei(i32 noundef 3315, i32 noundef %34)
  %35 = load ptr, ptr %17, align 8
  %36 = getelementptr inbounds %struct.GLNVGtexture, ptr %35, i32 0, i32 4
  %37 = load i32, ptr %36, align 4
  %38 = icmp eq i32 %37, 2
  br i1 %38, label %39, label %45

39:                                               ; preds = %25
  %40 = load i32, ptr %11, align 4
  %41 = load i32, ptr %12, align 4
  %42 = load i32, ptr %13, align 4
  %43 = load i32, ptr %14, align 4
  %44 = load ptr, ptr %15, align 8
  call void @glTexSubImage2D(i32 noundef 3553, i32 noundef 0, i32 noundef %40, i32 noundef %41, i32 noundef %42, i32 noundef %43, i32 noundef 6408, i32 noundef 5121, ptr noundef %44)
  br label %51

45:                                               ; preds = %25
  %46 = load i32, ptr %11, align 4
  %47 = load i32, ptr %12, align 4
  %48 = load i32, ptr %13, align 4
  %49 = load i32, ptr %14, align 4
  %50 = load ptr, ptr %15, align 8
  call void @glTexSubImage2D(i32 noundef 3553, i32 noundef 0, i32 noundef %46, i32 noundef %47, i32 noundef %48, i32 noundef %49, i32 noundef 6403, i32 noundef 5121, ptr noundef %50)
  br label %51

51:                                               ; preds = %45, %39
  call void @glPixelStorei(i32 noundef 3317, i32 noundef 4)
  call void @glPixelStorei(i32 noundef 3314, i32 noundef 0)
  call void @glPixelStorei(i32 noundef 3316, i32 noundef 0)
  call void @glPixelStorei(i32 noundef 3315, i32 noundef 0)
  %52 = load ptr, ptr %16, align 8
  call void @_ZL18glnvg__bindTextureP12GLNVGcontextj(ptr noundef %52, i32 noundef 0)
  store i32 1, ptr %8, align 4
  br label %53

53:                                               ; preds = %51, %24
  %54 = load i32, ptr %8, align 4
  ret i32 %54
}