; Function Attrs: mustprogress uwtable
define internal noundef i32 @_ZL26glnvg__renderUpdateTexturePviiiiiPKh(ptr nocapture noundef %0, i32 noundef %1, i32 noundef %2, i32 noundef %3, i32 noundef %4, i32 noundef %5, ptr noundef %6) #3 {
  %8 = getelementptr inbounds i8, ptr %0, i64 40
  %9 = load i32, ptr %8, align 8
  %10 = icmp sgt i32 %9, 0
  br i1 %10, label %.lr.ph.i, label %_ZL18glnvg__bindTextureP12GLNVGcontextj.exit23

.lr.ph.i:                                         ; preds = %7
  %11 = getelementptr inbounds i8, ptr %0, i64 24
  %12 = load ptr, ptr %11, align 8
  %wide.trip.count.i = zext nneg i32 %9 to i64
  br label %14

13:                                               ; preds = %14
  %indvars.iv.next.i = add nuw nsw i64 %indvars.iv.i, 1
  %exitcond.not.i = icmp eq i64 %indvars.iv.next.i, %wide.trip.count.i
  br i1 %exitcond.not.i, label %_ZL18glnvg__bindTextureP12GLNVGcontextj.exit23, label %14, !llvm.loop !8

14:                                               ; preds = %13, %.lr.ph.i
  %indvars.iv.i = phi i64 [ 0, %.lr.ph.i ], [ %indvars.iv.next.i, %13 ]
  %15 = getelementptr inbounds %struct.GLNVGtexture, ptr %12, i64 %indvars.iv.i
  %16 = load i32, ptr %15, align 4
  %17 = icmp eq i32 %16, %1
  br i1 %17, label %_ZL18glnvg__findTextureP12GLNVGcontexti.exit, label %13

_ZL18glnvg__findTextureP12GLNVGcontexti.exit:     ; preds = %14
  %18 = getelementptr inbounds i8, ptr %15, i64 4
  %19 = load i32, ptr %18, align 4
  %20 = getelementptr inbounds i8, ptr %0, i64 136
  %21 = load i32, ptr %20, align 8
  %.not.i = icmp eq i32 %21, %19
  br i1 %.not.i, label %_ZL18glnvg__bindTextureP12GLNVGcontextj.exit, label %22

22:                                               ; preds = %_ZL18glnvg__findTextureP12GLNVGcontexti.exit
  store i32 %19, ptr %20, align 8
  tail call void @glBindTexture(i32 noundef 3553, i32 noundef %19)
  br label %_ZL18glnvg__bindTextureP12GLNVGcontextj.exit

_ZL18glnvg__bindTextureP12GLNVGcontextj.exit:     ; preds = %_ZL18glnvg__findTextureP12GLNVGcontexti.exit, %22
  tail call void @glPixelStorei(i32 noundef 3317, i32 noundef 1)
  %23 = getelementptr inbounds i8, ptr %15, i64 8
  %24 = load i32, ptr %23, align 4
  tail call void @glPixelStorei(i32 noundef 3314, i32 noundef %24)
  tail call void @glPixelStorei(i32 noundef 3316, i32 noundef %2)
  tail call void @glPixelStorei(i32 noundef 3315, i32 noundef %3)
  %25 = getelementptr inbounds i8, ptr %15, i64 16
  %26 = load i32, ptr %25, align 4
  %27 = icmp eq i32 %26, 2
  %. = select i1 %27, i32 6408, i32 6403
  tail call void @glTexSubImage2D(i32 noundef 3553, i32 noundef 0, i32 noundef %2, i32 noundef %3, i32 noundef %4, i32 noundef %5, i32 noundef %., i32 noundef 5121, ptr noundef %6)
  tail call void @glPixelStorei(i32 noundef 3317, i32 noundef 4)
  tail call void @glPixelStorei(i32 noundef 3314, i32 noundef 0)
  tail call void @glPixelStorei(i32 noundef 3316, i32 noundef 0)
  tail call void @glPixelStorei(i32 noundef 3315, i32 noundef 0)
  %28 = load i32, ptr %20, align 8
  %.not.i22 = icmp eq i32 %28, 0
  br i1 %.not.i22, label %_ZL18glnvg__bindTextureP12GLNVGcontextj.exit23, label %29

29:                                               ; preds = %_ZL18glnvg__bindTextureP12GLNVGcontextj.exit
  store i32 0, ptr %20, align 8
  tail call void @glBindTexture(i32 noundef 3553, i32 noundef 0)
  br label %_ZL18glnvg__bindTextureP12GLNVGcontextj.exit23

_ZL18glnvg__bindTextureP12GLNVGcontextj.exit23:   ; preds = %13, %7, %29, %_ZL18glnvg__bindTextureP12GLNVGcontextj.exit
  %.0 = phi i32 [ 1, %_ZL18glnvg__bindTextureP12GLNVGcontextj.exit ], [ 1, %29 ], [ 0, %7 ], [ 0, %13 ]
  ret i32 %.0
}